; Function Attrs: inlinehint nounwind uwtable
define internal fastcc void @SetHintBits(ptr noundef captures(none) %0, i32 noundef %1, i16 noundef zeroext %2, i32 noundef %3) unnamed_addr #1 {
  %.not = icmp eq i32 %3, 0
  br i1 %.not, label %.thread, label %5

5:                                                ; preds = %4
  %6 = tail call i64 @TransactionIdGetCommitLSN(i32 noundef %3) #4
  %7 = tail call zeroext i1 @BufferIsPermanent(i32 noundef %1) #4
  br i1 %7, label %8, label %.thread

8:                                                ; preds = %5
  %9 = tail call zeroext i1 @XLogNeedsFlush(i64 noundef %6) #4
  br i1 %9, label %10, label %.thread

10:                                               ; preds = %8
  %11 = tail call i64 @BufferGetLSNAtomic(i32 noundef %1) #4
  %12 = icmp ult i64 %11, %6
  br i1 %12, label %16, label %.thread

.thread:                                          ; preds = %10, %8, %5, %4
  %13 = getelementptr inbounds nuw i8, ptr %0, i64 20
  %14 = load i16, ptr %13, align 4
  %15 = or i16 %14, %2
  store i16 %15, ptr %13, align 4
  tail call void @MarkBufferDirtyHint(i32 noundef %1, i1 noundef zeroext true) #4
  br label %16

16:                                               ; preds = %10, %.thread
  ret void
}